target datalayout = "e-m:e-p270:32:32-p271:32:32-p272:64:64-i64:64-i128:128-f80:128-n8:16:32:64-S128"
target triple = "x86_64-pc-linux-gnu"

%struct.strbuf = type { i64, i64, ptr }

@strbuf_slopbuf = external global [0 x i8], align 1
@junk_work_tree_flags = internal global i32 0, align 4
@junk_work_tree = internal global ptr null, align 8
@junk_git_dir_flags = internal global i32 0, align 4
@junk_git_dir = internal global ptr null, align 8
@junk_mode = internal global i32 0, align 4
@.str.166 = private unnamed_addr constant [1 x i8] zeroinitializer, align 1
@git_gettext_enabled = external global i32, align 4
@__const.remove_junk.sb = private unnamed_addr constant %struct.strbuf { i64 0, i64 0, ptr @strbuf_slopbuf }, align 8
@.str.173 = private unnamed_addr constant [3 x i8] c"%s\00", align 1
@junk_leave_repo_msg = internal constant [140 x i8] c"Clone succeeded, but checkout failed.\0AYou can inspect what was checked out with 'git status'\0Aand retry with 'git restore --source=HEAD :/'\0A\00", align 16
@.str.178 = private unnamed_addr constant [11 x i8] c"./strbuf.h\00", align 1
@.str.179 = private unnamed_addr constant [30 x i8] c"strbuf_setlen() beyond buffer\00", align 1

; Function Attrs: inlinehint nounwind uwtable
define internal void @strbuf_setlen(ptr noundef %0, i64 noundef %1) #4 {
  %3 = alloca ptr, align 8
  %4 = alloca i64, align 8
  store ptr %0, ptr %3, align 8, !tbaa !86
  store i64 %1, ptr %4, align 8, !tbaa !88
  %5 = load i64, ptr %4, align 8, !tbaa !88
  %6 = load ptr, ptr %3, align 8, !tbaa !86
  %7 = getelementptr inbounds nuw %struct.strbuf, ptr %6, i32 0, i32 0
  %8 = load i64, ptr %7, align 8, !tbaa !89
  %9 = icmp ne i64 %8, 0
  br i1 %9, label %10, label %15

10:                                               ; preds = %2
  %11 = load ptr, ptr %3, align 8, !tbaa !86
  %12 = getelementptr inbounds nuw %struct.strbuf, ptr %11, i32 0, i32 0
  %13 = load i64, ptr %12, align 8, !tbaa !89
  %14 = sub i64 %13, 1
  br label %16

15:                                               ; preds = %2
  br label %16

16:                                               ; preds = %15, %10
  %17 = phi i64 [ %14, %10 ], [ 0, %15 ]
  %18 = icmp ugt i64 %5, %17
  br i1 %18, label %19, label %20

19:                                               ; preds = %16
  call void (ptr, i32, ptr, ...) @BUG_fl(ptr noundef @.str.178, i32 noundef 167, ptr noundef @.str.179) #14
  unreachable

20:                                               ; preds = %16
  %21 = load i64, ptr %4, align 8, !tbaa !88
  %22 = load ptr, ptr %3, align 8, !tbaa !86
  %23 = getelementptr inbounds nuw %struct.strbuf, ptr %22, i32 0, i32 1
  store i64 %21, ptr %23, align 8, !tbaa !90
  %24 = load ptr, ptr %3, align 8, !tbaa !86
  %25 = getelementptr inbounds nuw %struct.strbuf, ptr %24, i32 0, i32 2
  %26 = load ptr, ptr %25, align 8, !tbaa !49
  %27 = icmp ne ptr %26, @strbuf_slopbuf
  br i1 %27, label %28, label %34

28:                                               ; preds = %20
  %29 = load ptr, ptr %3, align 8, !tbaa !86
  %30 = getelementptr inbounds nuw %struct.strbuf, ptr %29, i32 0, i32 2
  %31 = load ptr, ptr %30, align 8, !tbaa !49
  %32 = load i64, ptr %4, align 8, !tbaa !88
  %33 = getelementptr inbounds nuw i8, ptr %31, i64 %32
  store i8 0, ptr %33, align 1, !tbaa !83
  br label %35

34:                                               ; preds = %20
  br label %35

35:                                               ; preds = %34, %28
  ret void
}

; Function Attrs: inlinehint nounwind uwtable
define internal void @strbuf_addstr(ptr noundef %0, ptr noundef %1) #4 {
  %3 = alloca ptr, align 8
  %4 = alloca ptr, align 8
  store ptr %0, ptr %3, align 8, !tbaa !86
  store ptr %1, ptr %4, align 8, !tbaa !11
  %5 = load ptr, ptr %3, align 8, !tbaa !86
  %6 = load ptr, ptr %4, align 8, !tbaa !11
  %7 = load ptr, ptr %4, align 8, !tbaa !11
  %8 = call i64 @strlen(ptr noundef %7) #15
  call void @strbuf_add(ptr noundef %5, ptr noundef %6, i64 noundef %8)
  ret void
}

; Function Attrs: inlinehint nounwind uwtable
define internal ptr @_(ptr noundef %0) #4 {
  %2 = alloca ptr, align 8
  %3 = alloca ptr, align 8
  store ptr %0, ptr %3, align 8, !tbaa !11
  %4 = load ptr, ptr %3, align 8, !tbaa !11
  %5 = load i8, ptr %4, align 1, !tbaa !83
  %6 = icmp ne i8 %5, 0
  br i1 %6, label %8, label %7

7:                                                ; preds = %1
  store ptr @.str.166, ptr %2, align 8
  br label %16

8:                                                ; preds = %1
  %9 = load i32, ptr @git_gettext_enabled, align 4, !tbaa !4
  %10 = icmp ne i32 %9, 0
  br i1 %10, label %13, label %11

11:                                               ; preds = %8
  %12 = load ptr, ptr %3, align 8, !tbaa !11
  store ptr %12, ptr %2, align 8
  br label %16

13:                                               ; preds = %8
  %14 = load ptr, ptr %3, align 8, !tbaa !11
  %15 = call ptr @dcgettext(ptr noundef null, ptr noundef %14, i32 noundef 5) #13
  store ptr %15, ptr %2, align 8
  br label %16

16:                                               ; preds = %13, %11, %7
  %17 = load ptr, ptr %2, align 8
  ret ptr %17
}

; Function Attrs: nounwind uwtable
define internal void @remove_junk() #0 {
  %1 = alloca %struct.strbuf, align 8
  %2 = alloca i32, align 4
  call void @llvm.lifetime.start.p0(i64 24, ptr %1) #13
  call void @llvm.memcpy.p0.p0.i64(ptr align 8 %1, ptr align 8 @__const.remove_junk.sb, i64 24, i1 false)
  %3 = load i32, ptr @junk_mode, align 4, !tbaa !4
  switch i32 %3, label %7 [
    i32 1, label %4
    i32 2, label %6
  ]

4:                                                ; preds = %0
  %5 = call ptr @_(ptr noundef @junk_leave_repo_msg)
  call void (ptr, ...) @warning(ptr noundef @.str.173, ptr noundef %5)
  br label %6

6:                                                ; preds = %0, %4
  store i32 1, ptr %2, align 4
  br label %23

7:                                                ; preds = %0
  br label %8

8:                                                ; preds = %7
  %9 = load ptr, ptr @junk_git_dir, align 8, !tbaa !11
  %10 = icmp ne ptr %9, null
  br i1 %10, label %11, label %15

11:                                               ; preds = %8
  %12 = load ptr, ptr @junk_git_dir, align 8, !tbaa !11
  call void @strbuf_addstr(ptr noundef %1, ptr noundef %12)
  %13 = load i32, ptr @junk_git_dir_flags, align 4, !tbaa !4
  %14 = call i32 @remove_dir_recursively(ptr noundef %1, i32 noundef %13)
  call void @strbuf_setlen(ptr noundef %1, i64 noundef 0)
  br label %15

15:                                               ; preds = %11, %8
  %16 = load ptr, ptr @junk_work_tree, align 8, !tbaa !11
  %17 = icmp ne ptr %16, null
  br i1 %17, label %18, label %22

18:                                               ; preds = %15
  %19 = load ptr, ptr @junk_work_tree, align 8, !tbaa !11
  call void @strbuf_addstr(ptr noundef %1, ptr noundef %19)
  %20 = load i32, ptr @junk_work_tree_flags, align 4, !tbaa !4
  %21 = call i32 @remove_dir_recursively(ptr noundef %1, i32 noundef %20)
  br label %22

22:                                               ; preds = %18, %15
  call void @strbuf_release(ptr noundef %1)
  store i32 0, ptr %2, align 4
  br label %23

23:                                               ; preds = %22, %6
  call void @llvm.lifetime.end.p0(i64 24, ptr %1) #13
  %24 = load i32, ptr %2, align 4
  switch i32 %24, label %26 [
    i32 0, label %25
    i32 1, label %25
  ]

25:                                               ; preds = %23, %23
  ret void

26:                                               ; preds = %23
  unreachable
}