; Function Attrs: nounwind uwtable
define internal void @remove_junk() #0 {
  %1 = alloca %struct.strbuf, align 8
  call void @llvm.lifetime.start.p0(i64 24, ptr nonnull %1) #20
  call void @llvm.memcpy.p0.p0.i64(ptr noundef nonnull align 8 dereferenceable(24) %1, ptr noundef nonnull align 8 dereferenceable(24) @__const.git_pathdup.path, i64 24, i1 false)
  %2 = load i32, ptr @junk_mode, align 4, !tbaa !4
  switch i32 %2, label %7 [
    i32 1, label %3
    i32 2, label %23
  ]

3:                                                ; preds = %0
  %4 = load i32, ptr @git_gettext_enabled, align 4, !tbaa !4
  %.not4.i = icmp eq i32 %4, 0
  br i1 %.not4.i, label %_.exit, label %5

5:                                                ; preds = %3
  %6 = tail call ptr @dcgettext(ptr noundef null, ptr noundef nonnull @junk_leave_repo_msg, i32 noundef 5) #20
  br label %_.exit

_.exit:                                           ; preds = %3, %5
  %.0.i = phi ptr [ %6, %5 ], [ @junk_leave_repo_msg, %3 ]
  tail call void (ptr, ...) @warning(ptr noundef nonnull @.str.173, ptr noundef %.0.i) #20
  br label %23

7:                                                ; preds = %0
  %8 = load ptr, ptr @junk_git_dir, align 8, !tbaa !11
  %.not = icmp eq ptr %8, null
  br i1 %.not, label %strbuf_setlen.exit, label %9

9:                                                ; preds = %7
  %10 = tail call i64 @strlen(ptr noundef nonnull dereferenceable(1) %8) #22
  call void @strbuf_add(ptr noundef nonnull %1, ptr noundef nonnull %8, i64 noundef %10) #20
  %11 = load i32, ptr @junk_git_dir_flags, align 4, !tbaa !4
  %12 = call i32 @remove_dir_recursively(ptr noundef nonnull %1, i32 noundef %11) #20
  %13 = getelementptr inbounds nuw i8, ptr %1, i64 8
  store i64 0, ptr %13, align 8, !tbaa !42
  %14 = getelementptr inbounds nuw i8, ptr %1, i64 16
  %15 = load ptr, ptr %14, align 8, !tbaa !40
  %.not9.i = icmp eq ptr %15, @strbuf_slopbuf
  br i1 %.not9.i, label %strbuf_setlen.exit, label %16

16:                                               ; preds = %9
  store i8 0, ptr %15, align 1, !tbaa !43
  br label %strbuf_setlen.exit

strbuf_setlen.exit:                               ; preds = %16, %9, %7
  %17 = load ptr, ptr @junk_work_tree, align 8, !tbaa !11
  %.not2 = icmp eq ptr %17, null
  br i1 %.not2, label %22, label %18

18:                                               ; preds = %strbuf_setlen.exit
  %19 = call i64 @strlen(ptr noundef nonnull dereferenceable(1) %17) #22
  call void @strbuf_add(ptr noundef nonnull %1, ptr noundef nonnull %17, i64 noundef %19) #20
  %20 = load i32, ptr @junk_work_tree_flags, align 4, !tbaa !4
  %21 = call i32 @remove_dir_recursively(ptr noundef nonnull %1, i32 noundef %20) #20
  br label %22

22:                                               ; preds = %18, %strbuf_setlen.exit
  call void @strbuf_release(ptr noundef nonnull %1) #20
  br label %23

23:                                               ; preds = %0, %_.exit, %22
  call void @llvm.lifetime.end.p0(i64 24, ptr nonnull %1) #20
  ret void
}